target datalayout = "e-m:e-p270:32:32-p271:32:32-p272:64:64-i64:64-i128:128-f80:128-n8:16:32:64-S128"
target triple = "x86_64-unknown-linux-gnu"

%struct.RISCVCPUClass = type { %struct.CPUClass, ptr, %struct.ResettablePhases }
%struct.CPUClass = type { %struct.DeviceClass, ptr, ptr, ptr, ptr, ptr, ptr, ptr, ptr, ptr, ptr, ptr, ptr, ptr, ptr, ptr, ptr, ptr, ptr, ptr, ptr, ptr, i32, i32, i8 }
%struct.DeviceClass = type { %struct.ObjectClass, [1 x i64], ptr, ptr, ptr, i8, i8, ptr, ptr, ptr, ptr, ptr }
%struct.ObjectClass = type { ptr, ptr, [4 x ptr], [4 x ptr], ptr, ptr }
%struct.ResettablePhases = type { ptr, ptr, ptr }

@tcg_allowed = external global i8, align 1
@.str.250 = private unnamed_addr constant [10 x i8] c"riscv-cpu\00", align 1
@.str.282 = private unnamed_addr constant [31 x i8] c"../qemu/target/riscv/cpu-qom.h\00", align 1
@__func__.RISCV_CPU_GET_CLASS = private unnamed_addr constant [20 x i8] c"RISCV_CPU_GET_CLASS\00", align 1
@__func__.RISCV_CPU = private unnamed_addr constant [10 x i8] c"RISCV_CPU\00", align 1
@.str.317 = private unnamed_addr constant [14 x i8] c"any-riscv-cpu\00", align 1
@.str.336 = private unnamed_addr constant [63 x i8] c"The 'any' CPU is deprecated and will be removed in the future.\00", align 1

; Function Attrs: nounwind sspstrong uwtable
define dso_local void @riscv_cpu_finalize_features(ptr noundef %cpu, ptr noundef %errp) #0 {
entry:
  %cpu.addr = alloca ptr, align 8
  %errp.addr = alloca ptr, align 8
  %local_err = alloca ptr, align 8
  store ptr %cpu, ptr %cpu.addr, align 8
  store ptr %errp, ptr %errp.addr, align 8
  store ptr null, ptr %local_err, align 8
  %0 = load i8, ptr @tcg_allowed, align 1
  %tobool = trunc i8 %0 to i1
  br i1 %tobool, label %if.then, label %if.end2

if.then:                                          ; preds = %entry
  %1 = load ptr, ptr %cpu.addr, align 8
  call void @riscv_tcg_cpu_finalize_features(ptr noundef %1, ptr noundef %local_err)
  %2 = load ptr, ptr %local_err, align 8
  %cmp = icmp ne ptr %2, null
  br i1 %cmp, label %if.then1, label %if.end

if.then1:                                         ; preds = %if.then
  %3 = load ptr, ptr %errp.addr, align 8
  %4 = load ptr, ptr %local_err, align 8
  call void @error_propagate(ptr noundef %3, ptr noundef %4)
  br label %if.end2

if.end:                                           ; preds = %if.then
  br label %if.end2

if.end2:                                          ; preds = %if.end, %if.then1, %entry
  ret void
}

; Function Attrs: nounwind sspstrong uwtable
define internal ptr @RISCV_CPU_GET_CLASS(ptr noundef %obj) #0 {
entry:
  %obj.addr = alloca ptr, align 8
  store ptr %obj, ptr %obj.addr, align 8
  %0 = load ptr, ptr %obj.addr, align 8
  %call = call ptr @object_get_class(ptr noundef %0)
  %call1 = call ptr @object_class_dynamic_cast_assert(ptr noundef %call, ptr noundef @.str.250, ptr noundef @.str.282, i32 noundef 46, ptr noundef @__func__.RISCV_CPU_GET_CLASS)
  ret ptr %call1
}

; Function Attrs: nounwind sspstrong uwtable
define internal ptr @RISCV_CPU(ptr noundef %obj) #0 {
entry:
  %obj.addr = alloca ptr, align 8
  store ptr %obj, ptr %obj.addr, align 8
  %0 = load ptr, ptr %obj.addr, align 8
  %call = call ptr @object_dynamic_cast_assert(ptr noundef %0, ptr noundef @.str.250, ptr noundef @.str.282, i32 noundef 46, ptr noundef @__func__.RISCV_CPU)
  ret ptr %call
}

; Function Attrs: nounwind sspstrong uwtable
define internal void @riscv_cpu_realize(ptr noundef %dev, ptr noundef %errp) #0 {
entry:
  %dev.addr = alloca ptr, align 8
  %errp.addr = alloca ptr, align 8
  %cs = alloca ptr, align 8
  %cpu = alloca ptr, align 8
  %mcc = alloca ptr, align 8
  %local_err = alloca ptr, align 8
  store ptr %dev, ptr %dev.addr, align 8
  store ptr %errp, ptr %errp.addr, align 8
  %0 = load ptr, ptr %dev.addr, align 8
  store ptr %0, ptr %cs, align 8
  %1 = load ptr, ptr %dev.addr, align 8
  %call = call ptr @RISCV_CPU(ptr noundef %1)
  store ptr %call, ptr %cpu, align 8
  %2 = load ptr, ptr %dev.addr, align 8
  %call1 = call ptr @RISCV_CPU_GET_CLASS(ptr noundef %2)
  store ptr %call1, ptr %mcc, align 8
  store ptr null, ptr %local_err, align 8
  %3 = load ptr, ptr %dev.addr, align 8
  %call2 = call ptr @object_dynamic_cast(ptr noundef %3, ptr noundef @.str.317)
  %cmp = icmp ne ptr %call2, null
  br i1 %cmp, label %if.then, label %if.end

if.then:                                          ; preds = %entry
  call void (ptr, ...) @warn_report(ptr noundef @.str.336)
  br label %if.end

if.end:                                           ; preds = %if.then, %entry
  %4 = load ptr, ptr %cs, align 8
  %call3 = call zeroext i1 @cpu_exec_realizefn(ptr noundef %4, ptr noundef %local_err)
  %5 = load ptr, ptr %local_err, align 8
  %cmp4 = icmp ne ptr %5, null
  br i1 %cmp4, label %if.then5, label %if.end6

if.then5:                                         ; preds = %if.end
  %6 = load ptr, ptr %errp.addr, align 8
  %7 = load ptr, ptr %local_err, align 8
  call void @error_propagate(ptr noundef %6, ptr noundef %7)
  br label %return

if.end6:                                          ; preds = %if.end
  %8 = load ptr, ptr %cpu, align 8
  call void @riscv_cpu_finalize_features(ptr noundef %8, ptr noundef %local_err)
  %9 = load ptr, ptr %local_err, align 8
  %cmp7 = icmp ne ptr %9, null
  br i1 %cmp7, label %if.then8, label %if.end9

if.then8:                                         ; preds = %if.end6
  %10 = load ptr, ptr %errp.addr, align 8
  %11 = load ptr, ptr %local_err, align 8
  call void @error_propagate(ptr noundef %10, ptr noundef %11)
  br label %return

if.end9:                                          ; preds = %if.end6
  %12 = load ptr, ptr %cs, align 8
  call void @riscv_cpu_register_gdb_regs_for_features(ptr noundef %12)
  %13 = load ptr, ptr %cs, align 8
  call void @qemu_init_vcpu(ptr noundef %13)
  %14 = load ptr, ptr %cs, align 8
  call void @cpu_reset(ptr noundef %14)
  %15 = load ptr, ptr %mcc, align 8
  %parent_realize = getelementptr inbounds %struct.RISCVCPUClass, ptr %15, i32 0, i32 1
  %16 = load ptr, ptr %parent_realize, align 8
  %17 = load ptr, ptr %dev.addr, align 8
  %18 = load ptr, ptr %errp.addr, align 8
  call void %16(ptr noundef %17, ptr noundef %18)
  br label %return

return:                                           ; preds = %if.end9, %if.then8, %if.then5
  ret void
}