; Function Attrs: nounwind sspstrong uwtable
define internal void @riscv_cpu_realize(ptr noundef %dev, ptr noundef %errp) #3 {
entry:
  %local_err.i = alloca ptr, align 8
  %local_err = alloca ptr, align 8
  %call.i = tail call ptr @object_dynamic_cast_assert(ptr noundef %dev, ptr noundef nonnull @.str.250, ptr noundef nonnull @.str.282, i32 noundef 46, ptr noundef nonnull @__func__.RISCV_CPU) #14
  %call.i11 = tail call ptr @object_get_class(ptr noundef %dev) #14
  %call1.i = tail call ptr @object_class_dynamic_cast_assert(ptr noundef %call.i11, ptr noundef nonnull @.str.250, ptr noundef nonnull @.str.282, i32 noundef 46, ptr noundef nonnull @__func__.RISCV_CPU_GET_CLASS) #14
  store ptr null, ptr %local_err, align 8
  %call2 = tail call ptr @object_dynamic_cast(ptr noundef %dev, ptr noundef nonnull @.str.317) #14
  %cmp.not = icmp eq ptr %call2, null
  br i1 %cmp.not, label %if.end, label %if.then

if.then:                                          ; preds = %entry
  tail call void (ptr, ...) @warn_report(ptr noundef nonnull @.str.336) #14
  br label %if.end

if.end:                                           ; preds = %if.then, %entry
  %call3 = call zeroext i1 @cpu_exec_realizefn(ptr noundef %dev, ptr noundef nonnull %local_err) #14
  %0 = load ptr, ptr %local_err, align 8
  %cmp4.not = icmp eq ptr %0, null
  br i1 %cmp4.not, label %if.end6, label %if.then5

if.then5:                                         ; preds = %if.end
  call void @error_propagate(ptr noundef %errp, ptr noundef nonnull %0) #14
  br label %return

if.end6:                                          ; preds = %if.end
  call void @llvm.lifetime.start.p0(i64 8, ptr nonnull %local_err.i)
  store ptr null, ptr %local_err.i, align 8
  %1 = load i8, ptr @tcg_allowed, align 1
  %tobool.i = trunc i8 %1 to i1
  br i1 %tobool.i, label %if.then.i, label %riscv_cpu_finalize_features.exit

if.then.i:                                        ; preds = %if.end6
  call void @riscv_tcg_cpu_finalize_features(ptr noundef %call.i, ptr noundef nonnull %local_err.i) #14
  %2 = load ptr, ptr %local_err.i, align 8
  %cmp.not.i = icmp eq ptr %2, null
  br i1 %cmp.not.i, label %riscv_cpu_finalize_features.exit, label %if.then1.i

if.then1.i:                                       ; preds = %if.then.i
  call void @error_propagate(ptr noundef nonnull %local_err, ptr noundef nonnull %2) #14
  br label %riscv_cpu_finalize_features.exit

riscv_cpu_finalize_features.exit:                 ; preds = %if.end6, %if.then.i, %if.then1.i
  call void @llvm.lifetime.end.p0(i64 8, ptr nonnull %local_err.i)
  %3 = load ptr, ptr %local_err, align 8
  %cmp7.not = icmp eq ptr %3, null
  br i1 %cmp7.not, label %if.end9, label %if.then8

if.then8:                                         ; preds = %riscv_cpu_finalize_features.exit
  call void @error_propagate(ptr noundef %errp, ptr noundef nonnull %3) #14
  br label %return

if.end9:                                          ; preds = %riscv_cpu_finalize_features.exit
  call void @riscv_cpu_register_gdb_regs_for_features(ptr noundef %dev) #14
  call void @qemu_init_vcpu(ptr noundef %dev) #14
  call void @cpu_reset(ptr noundef %dev) #14
  %parent_realize = getelementptr inbounds nuw i8, ptr %call1.i, i64 360
  %4 = load ptr, ptr %parent_realize, align 8
  call void %4(ptr noundef %dev, ptr noundef %errp) #14
  br label %return

return:                                           ; preds = %if.end9, %if.then8, %if.then5
  ret void
}